target datalayout = "e-m:e-p270:32:32-p271:32:32-p272:64:64-i64:64-i128:128-f80:128-n8:16:32:64-S128"
target triple = "x86_64-pc-linux-gnu"

%"class.triggers::trigger_t" = type <{ ptr, i64, i8, i8, i8, i8, i8, [3 x i8], i32, i32, i32, i32, i32, [4 x i8] }>
%class.processor_t = type { %class.abstract_device_t, i8, i32, %class.isa_parser_t, ptr, ptr, ptr, %"class.std::unordered_map", ptr, %struct.state_t, i32, i32, i8, i8, ptr, %"class.std::basic_ostream", i8, i8, i8, %"class.std::vector.82", %"class.std::bitset", %"class.std::bitset", %"class.std::bitset", %"class.std::vector.86", %"class.std::vector.86", %"class.std::unordered_map.91", [4095 x %class.opcode_cache_entry_t], i64, i64, i64, %class.entropy_source, i64, i64, %class.vectorUnit_t, %"class.triggers::module_t" }
%class.abstract_device_t = type { ptr }
%class.isa_parser_t = type { i32, i64, i64, i64, i8, i8, %"class.std::bitset", %"class.std::__cxx11::basic_string", %"class.std::set" }
%"class.std::__cxx11::basic_string" = type { %"struct.std::__cxx11::basic_string<char>::_Alloc_hider", i64, %union.anon }
%"struct.std::__cxx11::basic_string<char>::_Alloc_hider" = type { ptr }
%union.anon = type { i64, [8 x i8] }
%"class.std::set" = type { %"class.std::_Rb_tree" }
%"class.std::_Rb_tree" = type { %"struct.std::_Rb_tree<std::__cxx11::basic_string<char>, std::__cxx11::basic_string<char>, std::_Identity<std::__cxx11::basic_string<char>>, std::less<std::__cxx11::basic_string<char>>>::_Rb_tree_impl" }
%"struct.std::_Rb_tree<std::__cxx11::basic_string<char>, std::__cxx11::basic_string<char>, std::_Identity<std::__cxx11::basic_string<char>>, std::less<std::__cxx11::basic_string<char>>>::_Rb_tree_impl" = type { [8 x i8], %"struct.std::_Rb_tree_header" }
%"struct.std::_Rb_tree_header" = type { %"struct.std::_Rb_tree_node_base", i64 }
%"struct.std::_Rb_tree_node_base" = type { i32, ptr, ptr, ptr }
%"class.std::unordered_map" = type { %"class.std::_Hashtable" }
%"class.std::_Hashtable" = type { ptr, i64, %"struct.std::__detail::_Hash_node_base", i64, %"struct.std::__detail::_Prime_rehash_policy", ptr }
%"struct.std::__detail::_Hash_node_base" = type { ptr }
%"struct.std::__detail::_Prime_rehash_policy" = type { float, i64 }
%struct.state_t = type <{ i64, %class.regfile_t, %class.regfile_t.8, %"class.std::unordered_map.9", i64, i64, i8, i8, i8, i8, [4 x i8], %"class.std::shared_ptr", %"class.std::shared_ptr.29", %"class.std::shared_ptr.32", %"class.std::shared_ptr.32", %"class.std::shared_ptr.32", %"class.std::shared_ptr.32", %"class.std::shared_ptr.32", %"class.std::shared_ptr.35", %"class.std::shared_ptr.35", %"class.std::shared_ptr.38", %"class.std::shared_ptr.41", %"class.std::shared_ptr.32", %"class.std::shared_ptr.32", %"class.std::shared_ptr.32", %"class.std::shared_ptr.32", [29 x %"class.std::shared_ptr.32"], %"class.std::shared_ptr.32", %"class.std::shared_ptr.32", %"class.std::shared_ptr.32", %"class.std::shared_ptr.32", %"class.std::shared_ptr.32", %"class.std::shared_ptr.32", %"class.std::shared_ptr.44", %"class.std::shared_ptr.32", %"class.std::shared_ptr.32", %"class.std::shared_ptr.32", %"class.std::shared_ptr.32", %"class.std::shared_ptr.32", %"class.std::shared_ptr.47", %"class.std::shared_ptr.32", %"class.std::shared_ptr.32", %"class.std::shared_ptr.32", %"class.std::shared_ptr.32", %"class.std::shared_ptr.32", %"class.std::shared_ptr.32", %"class.std::shared_ptr.32", %"class.std::shared_ptr.32", %"class.std::shared_ptr.32", %"class.std::shared_ptr.50", %"class.std::shared_ptr.53", %"class.std::shared_ptr.56", %"class.std::shared_ptr.32", %"class.std::shared_ptr.32", %"class.std::shared_ptr.32", %"class.std::shared_ptr.32", %"class.std::shared_ptr.32", %"class.std::shared_ptr.32", %"class.std::shared_ptr.59", %"class.std::shared_ptr.32", %"class.std::shared_ptr.32", %"class.std::shared_ptr.32", %"class.std::shared_ptr.32", %"class.std::shared_ptr.32", %"class.std::shared_ptr.32", i8, [7 x i8], %"class.std::shared_ptr.62", [64 x %"class.std::shared_ptr.65"], %"class.std::shared_ptr.68", %"class.std::shared_ptr.68", %"class.std::shared_ptr.32", %"class.std::shared_ptr.32", %"class.std::shared_ptr.32", [4 x %"class.std::shared_ptr.32"], [4 x %"class.std::shared_ptr.32"], [4 x %"class.std::shared_ptr.32"], %"class.std::shared_ptr.32", %"class.std::shared_ptr.71", %"class.std::shared_ptr.32", %"class.std::shared_ptr.32", %"class.std::shared_ptr.32", %"class.std::shared_ptr.32", i8, [3 x i8], i32, %"class.std::map", %"class.std::vector", %"class.std::vector", i64, i32, i32, i32, i8, [3 x i8] }>
%class.regfile_t = type { [32 x i64] }
%class.regfile_t.8 = type { [32 x %struct.float128_t] }
%struct.float128_t = type { [2 x i64] }
%"class.std::unordered_map.9" = type { %"class.std::_Hashtable.10" }
%"class.std::_Hashtable.10" = type { ptr, i64, %"struct.std::__detail::_Hash_node_base", i64, %"struct.std::__detail::_Prime_rehash_policy", ptr }
%"class.std::shared_ptr" = type { %"class.std::__shared_ptr" }
%"class.std::__shared_ptr" = type { ptr, %"class.std::__shared_count" }
%"class.std::__shared_count" = type { ptr }
%"class.std::shared_ptr.29" = type { %"class.std::__shared_ptr.30" }
%"class.std::__shared_ptr.30" = type { ptr, %"class.std::__shared_count" }
%"class.std::shared_ptr.35" = type { %"class.std::__shared_ptr.36" }
%"class.std::__shared_ptr.36" = type { ptr, %"class.std::__shared_count" }
%"class.std::shared_ptr.38" = type { %"class.std::__shared_ptr.39" }
%"class.std::__shared_ptr.39" = type { ptr, %"class.std::__shared_count" }
%"class.std::shared_ptr.41" = type { %"class.std::__shared_ptr.42" }
%"class.std::__shared_ptr.42" = type { ptr, %"class.std::__shared_count" }
%"class.std::shared_ptr.44" = type { %"class.std::__shared_ptr.45" }
%"class.std::__shared_ptr.45" = type { ptr, %"class.std::__shared_count" }
%"class.std::shared_ptr.47" = type { %"class.std::__shared_ptr.48" }
%"class.std::__shared_ptr.48" = type { ptr, %"class.std::__shared_count" }
%"class.std::shared_ptr.50" = type { %"class.std::__shared_ptr.51" }
%"class.std::__shared_ptr.51" = type { ptr, %"class.std::__shared_count" }
%"class.std::shared_ptr.53" = type { %"class.std::__shared_ptr.54" }
%"class.std::__shared_ptr.54" = type { ptr, %"class.std::__shared_count" }
%"class.std::shared_ptr.56" = type { %"class.std::__shared_ptr.57" }
%"class.std::__shared_ptr.57" = type { ptr, %"class.std::__shared_count" }
%"class.std::shared_ptr.59" = type { %"class.std::__shared_ptr.60" }
%"class.std::__shared_ptr.60" = type { ptr, %"class.std::__shared_count" }
%"class.std::shared_ptr.62" = type { %"class.std::__shared_ptr.63" }
%"class.std::__shared_ptr.63" = type { ptr, %"class.std::__shared_count" }
%"class.std::shared_ptr.65" = type { %"class.std::__shared_ptr.66" }
%"class.std::__shared_ptr.66" = type { ptr, %"class.std::__shared_count" }
%"class.std::shared_ptr.68" = type { %"class.std::__shared_ptr.69" }
%"class.std::__shared_ptr.69" = type { ptr, %"class.std::__shared_count" }
%"class.std::shared_ptr.71" = type { %"class.std::__shared_ptr.72" }
%"class.std::__shared_ptr.72" = type { ptr, %"class.std::__shared_count" }
%"class.std::shared_ptr.32" = type { %"class.std::__shared_ptr.33" }
%"class.std::__shared_ptr.33" = type { ptr, %"class.std::__shared_count" }
%"class.std::map" = type { %"class.std::_Rb_tree.74" }
%"class.std::_Rb_tree.74" = type { %"struct.std::_Rb_tree<unsigned long, std::pair<const unsigned long, float128_t>, std::_Select1st<std::pair<const unsigned long, float128_t>>, std::less<unsigned long>>::_Rb_tree_impl" }
%"struct.std::_Rb_tree<unsigned long, std::pair<const unsigned long, float128_t>, std::_Select1st<std::pair<const unsigned long, float128_t>>, std::less<unsigned long>>::_Rb_tree_impl" = type { [8 x i8], %"struct.std::_Rb_tree_header" }
%"class.std::vector" = type { %"struct.std::_Vector_base" }
%"struct.std::_Vector_base" = type { %"struct.std::_Vector_base<std::tuple<unsigned long, unsigned long, unsigned char>, std::allocator<std::tuple<unsigned long, unsigned long, unsigned char>>>::_Vector_impl" }
%"struct.std::_Vector_base<std::tuple<unsigned long, unsigned long, unsigned char>, std::allocator<std::tuple<unsigned long, unsigned long, unsigned char>>>::_Vector_impl" = type { %"struct.std::_Vector_base<std::tuple<unsigned long, unsigned long, unsigned char>, std::allocator<std::tuple<unsigned long, unsigned long, unsigned char>>>::_Vector_impl_data" }
%"struct.std::_Vector_base<std::tuple<unsigned long, unsigned long, unsigned char>, std::allocator<std::tuple<unsigned long, unsigned long, unsigned char>>>::_Vector_impl_data" = type { ptr, ptr, ptr }
%"class.std::basic_ostream" = type { ptr, %"class.std::basic_ios" }
%"class.std::basic_ios" = type { %"class.std::ios_base", ptr, i8, i8, ptr, ptr, ptr, ptr }
%"class.std::ios_base" = type { ptr, i64, i64, i32, i32, i32, ptr, %"struct.std::ios_base::_Words", [8 x %"struct.std::ios_base::_Words"], i32, ptr, %"class.std::locale" }
%"struct.std::ios_base::_Words" = type { ptr, i64 }
%"class.std::locale" = type { ptr }
%"class.std::vector.82" = type { %"struct.std::_Bvector_base" }
%"struct.std::_Bvector_base" = type { %"struct.std::_Bvector_base<std::allocator<bool>>::_Bvector_impl" }
%"struct.std::_Bvector_base<std::allocator<bool>>::_Bvector_impl" = type { %"struct.std::_Bvector_base<std::allocator<bool>>::_Bvector_impl_data" }
%"struct.std::_Bvector_base<std::allocator<bool>>::_Bvector_impl_data" = type { %"struct.std::_Bit_iterator", %"struct.std::_Bit_iterator", ptr }
%"struct.std::_Bit_iterator" = type { %"struct.std::_Bit_iterator_base.base", [4 x i8] }
%"struct.std::_Bit_iterator_base.base" = type <{ ptr, i32 }>
%"class.std::bitset" = type { %"struct.std::_Base_bitset" }
%"struct.std::_Base_bitset" = type { [3 x i64] }
%"class.std::vector.86" = type { %"struct.std::_Vector_base.87" }
%"struct.std::_Vector_base.87" = type { %"struct.std::_Vector_base<insn_desc_t, std::allocator<insn_desc_t>>::_Vector_impl" }
%"struct.std::_Vector_base<insn_desc_t, std::allocator<insn_desc_t>>::_Vector_impl" = type { %"struct.std::_Vector_base<insn_desc_t, std::allocator<insn_desc_t>>::_Vector_impl_data" }
%"struct.std::_Vector_base<insn_desc_t, std::allocator<insn_desc_t>>::_Vector_impl_data" = type { ptr, ptr, ptr }
%"class.std::unordered_map.91" = type { %"class.std::_Hashtable.92" }
%"class.std::_Hashtable.92" = type { ptr, i64, %"struct.std::__detail::_Hash_node_base", i64, %"struct.std::__detail::_Prime_rehash_policy", ptr }
%class.opcode_cache_entry_t = type { [4 x i64], [4 x ptr] }
%class.entropy_source = type { %"class.std::__cxx11::basic_string" }
%class.vectorUnit_t = type <{ ptr, ptr, [32 x i8], i32, [4 x i8], i64, i64, %"class.std::shared_ptr.32", %"class.std::shared_ptr.105", %"class.std::shared_ptr.105", %"class.std::shared_ptr.105", %"class.std::shared_ptr.105", i64, i64, i64, float, [4 x i8], i64, i64, i8, i8, [6 x i8] }>
%"class.std::shared_ptr.105" = type { %"class.std::__shared_ptr.106" }
%"class.std::__shared_ptr.106" = type { ptr, %"class.std::__shared_count" }
%"class.triggers::module_t" = type { ptr, %"class.std::vector.108" }
%"class.std::vector.108" = type { %"struct.std::_Vector_base.109" }
%"struct.std::_Vector_base.109" = type { %"struct.std::_Vector_base<triggers::trigger_t *, std::allocator<triggers::trigger_t *>>::_Vector_impl" }
%"struct.std::_Vector_base<triggers::trigger_t *, std::allocator<triggers::trigger_t *>>::_Vector_impl" = type { %"struct.std::_Vector_base<triggers::trigger_t *, std::allocator<triggers::trigger_t *>>::_Vector_impl_data" }
%"struct.std::_Vector_base<triggers::trigger_t *, std::allocator<triggers::trigger_t *>>::_Vector_impl_data" = type { ptr, ptr, ptr }
%"class.triggers::trigger_t.base" = type <{ ptr, i64, i8, i8, i8, i8, i8, [3 x i8], i32, i32, i32, i32, i32 }>
%"class.triggers::mcontrol_common_t" = type <{ %"class.triggers::trigger_t.base", i8, [3 x i8], i32, i8, i8, i8, i8, i32, i8, i8, i8, i8 }>
%"class.triggers::mcontrol_t" = type { %"class.triggers::mcontrol_common_t.base", i8, i64 }
%"class.triggers::mcontrol_common_t.base" = type <{ %"class.triggers::trigger_t.base", i8, [3 x i8], i32, i8, i8, i8, i8, i32, i8, i8, i8 }>

; Function Attrs: noinline noreturn nounwind uwtable
define linkonce_odr hidden void @__clang_call_terminate(ptr noundef %0) #7 comdat {
  %2 = call ptr @__cxa_begin_catch(ptr %0) #3
  call void @_ZSt9terminatev() #19
  unreachable
}

; Function Attrs: mustprogress nounwind uwtable
define linkonce_odr noundef i32 @_ZNK11processor_t8get_xlenEv(ptr noundef nonnull align 8 dereferenceable(266872) %0) #4 comdat align 2 {
  %2 = alloca ptr, align 8
  store ptr %0, ptr %2, align 8, !tbaa !8
  %3 = load ptr, ptr %2, align 8
  %4 = getelementptr inbounds nuw %class.processor_t, ptr %3, i32 0, i32 11
  %5 = load i32, ptr %4, align 4, !tbaa !33
  ret i32 %5
}

; Function Attrs: mustprogress nounwind uwtable
define noundef i64 @_ZNK8triggers10mcontrol_t11tdata1_readEPK11processor_t(ptr noundef nonnull align 8 dereferenceable(72) %0, ptr noundef %1) unnamed_addr #4 align 2 personality ptr @__gxx_personality_v0 {
  %3 = alloca ptr, align 8
  %4 = alloca ptr, align 8
  %5 = alloca i64, align 8
  %6 = alloca i32, align 4
  store ptr %0, ptr %3, align 8, !tbaa !193
  store ptr %1, ptr %4, align 8, !tbaa !8
  %7 = load ptr, ptr %3, align 8
  call void @llvm.lifetime.start.p0(i64 8, ptr %5) #3
  store i64 0, ptr %5, align 8, !tbaa !16
  call void @llvm.lifetime.start.p0(i64 4, ptr %6) #3
  %8 = load ptr, ptr %4, align 8, !tbaa !8
  %9 = invoke noundef i32 @_ZNK11processor_t8get_xlenEv(ptr noundef nonnull align 8 dereferenceable(266872) %8)
          to label %10 unwind label %199

10:                                               ; preds = %2
  store i32 %9, ptr %6, align 4, !tbaa !28
  %11 = load i64, ptr %5, align 8, !tbaa !16
  %12 = load i32, ptr %6, align 4, !tbaa !28
  %13 = sub i32 %12, 4
  %14 = zext i32 %13 to i64
  %15 = shl i64 15, %14
  %16 = xor i64 %15, -1
  %17 = and i64 %11, %16
  %18 = load i32, ptr %6, align 4, !tbaa !28
  %19 = sub i32 %18, 4
  %20 = zext i32 %19 to i64
  %21 = shl i64 15, %20
  %22 = load i32, ptr %6, align 4, !tbaa !28
  %23 = sub i32 %22, 4
  %24 = zext i32 %23 to i64
  %25 = shl i64 15, %24
  %26 = shl i64 %25, 1
  %27 = xor i64 %26, -1
  %28 = and i64 %21, %27
  %29 = mul i64 2, %28
  %30 = load i32, ptr %6, align 4, !tbaa !28
  %31 = sub i32 %30, 4
  %32 = zext i32 %31 to i64
  %33 = shl i64 15, %32
  %34 = and i64 %29, %33
  %35 = or i64 %17, %34
  store i64 %35, ptr %5, align 8, !tbaa !16
  %36 = load i64, ptr %5, align 8, !tbaa !16
  %37 = load i32, ptr %6, align 4, !tbaa !28
  %38 = zext i32 %37 to i64
  %39 = add i64 %38, -5
  %40 = shl i64 1, %39
  %41 = xor i64 %40, -1
  %42 = and i64 %36, %41
  %43 = getelementptr inbounds nuw %"class.triggers::mcontrol_common_t", ptr %7, i32 0, i32 1
  %44 = load i8, ptr %43, align 4, !tbaa !195, !range !18, !noundef !19
  %45 = trunc i8 %44 to i1
  %46 = zext i1 %45 to i64
  %47 = load i32, ptr %6, align 4, !tbaa !28
  %48 = zext i32 %47 to i64
  %49 = add i64 %48, -5
  %50 = shl i64 1, %49
  %51 = load i32, ptr %6, align 4, !tbaa !28
  %52 = zext i32 %51 to i64
  %53 = add i64 %52, -5
  %54 = shl i64 1, %53
  %55 = shl i64 %54, 1
  %56 = xor i64 %55, -1
  %57 = and i64 %50, %56
  %58 = mul i64 %46, %57
  %59 = load i32, ptr %6, align 4, !tbaa !28
  %60 = zext i32 %59 to i64
  %61 = add i64 %60, -5
  %62 = shl i64 1, %61
  %63 = and i64 %58, %62
  %64 = or i64 %42, %63
  store i64 %64, ptr %5, align 8, !tbaa !16
  %65 = load i64, ptr %5, align 8, !tbaa !16
  %66 = load i32, ptr %6, align 4, !tbaa !28
  %67 = sub i32 %66, 11
  %68 = zext i32 %67 to i64
  %69 = shl i64 63, %68
  %70 = xor i64 %69, -1
  %71 = and i64 %65, %70
  %72 = getelementptr inbounds nuw %"class.triggers::mcontrol_t", ptr %7, i32 0, i32 2
  %73 = load i64, ptr %72, align 8, !tbaa !199
  %74 = load i32, ptr %6, align 4, !tbaa !28
  %75 = sub i32 %74, 11
  %76 = zext i32 %75 to i64
  %77 = shl i64 63, %76
  %78 = load i32, ptr %6, align 4, !tbaa !28
  %79 = sub i32 %78, 11
  %80 = zext i32 %79 to i64
  %81 = shl i64 63, %80
  %82 = shl i64 %81, 1
  %83 = xor i64 %82, -1
  %84 = and i64 %77, %83
  %85 = mul i64 %73, %84
  %86 = load i32, ptr %6, align 4, !tbaa !28
  %87 = sub i32 %86, 11
  %88 = zext i32 %87 to i64
  %89 = shl i64 63, %88
  %90 = and i64 %85, %89
  %91 = or i64 %71, %90
  store i64 %91, ptr %5, align 8, !tbaa !16
  %92 = load i64, ptr %5, align 8, !tbaa !16
  %93 = and i64 %92, -1048577
  %94 = getelementptr inbounds nuw %"class.triggers::mcontrol_t", ptr %7, i32 0, i32 1
  %95 = load i8, ptr %94, align 1, !tbaa !201, !range !18, !noundef !19
  %96 = trunc i8 %95 to i1
  %97 = zext i1 %96 to i64
  %98 = mul i64 %97, 1048576
  %99 = and i64 %98, 1048576
  %100 = or i64 %93, %99
  store i64 %100, ptr %5, align 8, !tbaa !16
  %101 = load i64, ptr %5, align 8, !tbaa !16
  %102 = and i64 %101, -524289
  %103 = getelementptr inbounds nuw %"class.triggers::mcontrol_common_t", ptr %7, i32 0, i32 4
  %104 = load i8, ptr %103, align 4, !tbaa !202, !range !18, !noundef !19
  %105 = trunc i8 %104 to i1
  %106 = zext i1 %105 to i64
  %107 = mul i64 %106, 524288
  %108 = and i64 %107, 524288
  %109 = or i64 %102, %108
  store i64 %109, ptr %5, align 8, !tbaa !16
  %110 = load i64, ptr %5, align 8, !tbaa !16
  %111 = and i64 %110, -262145
  %112 = getelementptr inbounds nuw %"class.triggers::mcontrol_common_t", ptr %7, i32 0, i32 5
  %113 = load i8, ptr %112, align 1, !tbaa !203, !range !18, !noundef !19
  %114 = trunc i8 %113 to i1
  %115 = zext i1 %114 to i64
  %116 = mul i64 %115, 262144
  %117 = and i64 %116, 262144
  %118 = or i64 %111, %117
  store i64 %118, ptr %5, align 8, !tbaa !16
  %119 = load i64, ptr %5, align 8, !tbaa !16
  %120 = and i64 %119, -61441
  %121 = getelementptr inbounds nuw %"class.triggers::mcontrol_common_t", ptr %7, i32 0, i32 3
  %122 = load i32, ptr %121, align 8, !tbaa !204
  %123 = zext i32 %122 to i64
  %124 = mul i64 %123, 4096
  %125 = and i64 %124, 61440
  %126 = or i64 %120, %125
  store i64 %126, ptr %5, align 8, !tbaa !16
  %127 = load i64, ptr %5, align 8, !tbaa !16
  %128 = and i64 %127, -2049
  %129 = getelementptr inbounds nuw %"class.triggers::mcontrol_common_t", ptr %7, i32 0, i32 6
  %130 = load i8, ptr %129, align 2, !tbaa !205, !range !18, !noundef !19
  %131 = trunc i8 %130 to i1
  %132 = zext i1 %131 to i64
  %133 = mul i64 %132, 2048
  %134 = and i64 %133, 2048
  %135 = or i64 %128, %134
  store i64 %135, ptr %5, align 8, !tbaa !16
  %136 = load i64, ptr %5, align 8, !tbaa !16
  %137 = and i64 %136, -1921
  %138 = getelementptr inbounds nuw %"class.triggers::mcontrol_common_t", ptr %7, i32 0, i32 8
  %139 = load i32, ptr %138, align 8, !tbaa !206
  %140 = zext i32 %139 to i64
  %141 = mul i64 %140, 128
  %142 = and i64 %141, 1920
  %143 = or i64 %137, %142
  store i64 %143, ptr %5, align 8, !tbaa !16
  %144 = load i64, ptr %5, align 8, !tbaa !16
  %145 = and i64 %144, -65
  %146 = getelementptr inbounds nuw %"class.triggers::trigger_t", ptr %7, i32 0, i32 4
  %147 = load i8, ptr %146, align 2, !tbaa !163, !range !18, !noundef !19
  %148 = trunc i8 %147 to i1
  %149 = zext i1 %148 to i64
  %150 = mul i64 %149, 64
  %151 = and i64 %150, 64
  %152 = or i64 %145, %151
  store i64 %152, ptr %5, align 8, !tbaa !16
  %153 = load i64, ptr %5, align 8, !tbaa !16
  %154 = and i64 %153, -17
  %155 = getelementptr inbounds nuw %"class.triggers::trigger_t", ptr %7, i32 0, i32 5
  %156 = load i8, ptr %155, align 1, !tbaa !165, !range !18, !noundef !19
  %157 = trunc i8 %156 to i1
  %158 = zext i1 %157 to i64
  %159 = mul i64 %158, 16
  %160 = and i64 %159, 16
  %161 = or i64 %154, %160
  store i64 %161, ptr %5, align 8, !tbaa !16
  %162 = load i64, ptr %5, align 8, !tbaa !16
  %163 = and i64 %162, -9
  %164 = getelementptr inbounds nuw %"class.triggers::trigger_t", ptr %7, i32 0, i32 6
  %165 = load i8, ptr %164, align 4, !tbaa !167, !range !18, !noundef !19
  %166 = trunc i8 %165 to i1
  %167 = zext i1 %166 to i64
  %168 = mul i64 %167, 8
  %169 = and i64 %168, 8
  %170 = or i64 %163, %169
  store i64 %170, ptr %5, align 8, !tbaa !16
  %171 = load i64, ptr %5, align 8, !tbaa !16
  %172 = and i64 %171, -5
  %173 = getelementptr inbounds nuw %"class.triggers::mcontrol_common_t", ptr %7, i32 0, i32 9
  %174 = load i8, ptr %173, align 4, !tbaa !207, !range !18, !noundef !19
  %175 = trunc i8 %174 to i1
  %176 = zext i1 %175 to i64
  %177 = mul i64 %176, 4
  %178 = and i64 %177, 4
  %179 = or i64 %172, %178
  store i64 %179, ptr %5, align 8, !tbaa !16
  %180 = load i64, ptr %5, align 8, !tbaa !16
  %181 = and i64 %180, -3
  %182 = getelementptr inbounds nuw %"class.triggers::mcontrol_common_t", ptr %7, i32 0, i32 10
  %183 = load i8, ptr %182, align 1, !tbaa !208, !range !18, !noundef !19
  %184 = trunc i8 %183 to i1
  %185 = zext i1 %184 to i64
  %186 = mul i64 %185, 2
  %187 = and i64 %186, 2
  %188 = or i64 %181, %187
  store i64 %188, ptr %5, align 8, !tbaa !16
  %189 = load i64, ptr %5, align 8, !tbaa !16
  %190 = and i64 %189, -2
  %191 = getelementptr inbounds nuw %"class.triggers::mcontrol_common_t", ptr %7, i32 0, i32 11
  %192 = load i8, ptr %191, align 2, !tbaa !209, !range !18, !noundef !19
  %193 = trunc i8 %192 to i1
  %194 = zext i1 %193 to i64
  %195 = mul i64 %194, 1
  %196 = and i64 %195, 1
  %197 = or i64 %190, %196
  store i64 %197, ptr %5, align 8, !tbaa !16
  %198 = load i64, ptr %5, align 8, !tbaa !16
  call void @llvm.lifetime.end.p0(i64 4, ptr %6) #3
  call void @llvm.lifetime.end.p0(i64 8, ptr %5) #3
  ret i64 %198

199:                                              ; preds = %2
  %200 = landingpad { ptr, i32 }
          catch ptr null
  %201 = extractvalue { ptr, i32 } %200, 0
  call void @__clang_call_terminate(ptr %201) #19
  unreachable
}