; Function Attrs: mustprogress nofree norecurse nosync nounwind willreturn memory(argmem: read) uwtable
define noundef i64 @_ZNK8triggers10mcontrol_t11tdata1_readEPK11processor_t(ptr noundef nonnull readonly align 8 captures(none) dereferenceable(72) %0, ptr noundef readonly captures(none) %1) unnamed_addr #3 align 2 personality ptr @__gxx_personality_v0 {
  %3 = getelementptr inbounds nuw i8, ptr %1, i64 3964
  %4 = load i32, ptr %3, align 4, !tbaa !17
  %5 = add i32 %4, -4
  %6 = zext nneg i32 %5 to i64
  %7 = shl i64 15, %6
  %8 = shl i64 30, %6
  %9 = xor i64 %8, -1
  %10 = and i64 %7, %9
  %11 = shl i64 %10, 1
  %12 = zext i32 %4 to i64
  %13 = add nsw i64 %12, -5
  %14 = shl nuw i64 1, %13
  %15 = xor i64 %14, -1
  %16 = and i64 %11, %15
  %17 = and i64 %16, %7
  %18 = getelementptr inbounds nuw i8, ptr %0, i64 44
  %19 = load i8, ptr %18, align 4, !tbaa !163, !range !14, !noundef !15
  %20 = zext nneg i8 %19 to i64
  %21 = shl i64 2, %13
  %22 = xor i64 %21, -1
  %23 = and i64 %14, %22
  %24 = mul nuw nsw i64 %23, %20
  %25 = and i64 %24, %14
  %26 = or i64 %17, %25
  %27 = add i32 %4, -11
  %28 = zext nneg i32 %27 to i64
  %29 = shl i64 63, %28
  %30 = xor i64 %29, -1
  %31 = and i64 %26, %30
  %32 = getelementptr inbounds nuw i8, ptr %0, i64 64
  %33 = load i64, ptr %32, align 8, !tbaa !167
  %34 = shl i64 126, %28
  %35 = xor i64 %34, -1
  %36 = and i64 %29, %35
  %37 = mul i64 %36, %33
  %38 = and i64 %37, %29
  %39 = or disjoint i64 %31, %38
  %40 = and i64 %39, -1900512
  %41 = getelementptr inbounds nuw i8, ptr %0, i64 63
  %42 = load i8, ptr %41, align 1, !tbaa !169, !range !14, !noundef !15
  %43 = zext nneg i8 %42 to i64
  %44 = shl nuw nsw i64 %43, 20
  %45 = or disjoint i64 %40, %44
  %46 = getelementptr inbounds nuw i8, ptr %0, i64 52
  %47 = load i8, ptr %46, align 4, !tbaa !170, !range !14, !noundef !15
  %48 = zext nneg i8 %47 to i64
  %49 = shl nuw nsw i64 %48, 19
  %50 = or disjoint i64 %45, %49
  %51 = getelementptr inbounds nuw i8, ptr %0, i64 53
  %52 = load i8, ptr %51, align 1, !tbaa !171, !range !14, !noundef !15
  %53 = zext nneg i8 %52 to i64
  %54 = shl nuw nsw i64 %53, 18
  %55 = or disjoint i64 %50, %54
  %56 = getelementptr inbounds nuw i8, ptr %0, i64 48
  %57 = load i32, ptr %56, align 8, !tbaa !172
  %58 = zext i32 %57 to i64
  %59 = shl nuw nsw i64 %58, 12
  %60 = and i64 %59, 61440
  %61 = or disjoint i64 %55, %60
  %62 = getelementptr inbounds nuw i8, ptr %0, i64 54
  %63 = load i8, ptr %62, align 2, !tbaa !173, !range !14, !noundef !15
  %64 = zext nneg i8 %63 to i64
  %65 = shl nuw nsw i64 %64, 11
  %66 = getelementptr inbounds nuw i8, ptr %0, i64 56
  %67 = load i32, ptr %66, align 8, !tbaa !174
  %68 = zext i32 %67 to i64
  %69 = shl nuw nsw i64 %68, 7
  %70 = and i64 %69, 1920
  %71 = getelementptr inbounds nuw i8, ptr %0, i64 18
  %72 = load i8, ptr %71, align 2, !tbaa !175, !range !14, !noundef !15
  %73 = shl nuw nsw i8 %72, 6
  %74 = getelementptr inbounds nuw i8, ptr %0, i64 19
  %75 = load i8, ptr %74, align 1, !tbaa !176, !range !14, !noundef !15
  %76 = shl nuw nsw i8 %75, 4
  %77 = getelementptr inbounds nuw i8, ptr %0, i64 20
  %78 = load i8, ptr %77, align 4, !tbaa !177, !range !14, !noundef !15
  %79 = shl nuw nsw i8 %78, 3
  %80 = getelementptr inbounds nuw i8, ptr %0, i64 60
  %81 = load i8, ptr %80, align 4, !tbaa !178, !range !14, !noundef !15
  %82 = shl nuw nsw i8 %81, 2
  %83 = getelementptr inbounds nuw i8, ptr %0, i64 61
  %84 = load i8, ptr %83, align 1, !tbaa !179, !range !14, !noundef !15
  %85 = shl nuw nsw i8 %84, 1
  %.masked.masked.masked.masked.masked.masked = or disjoint i64 %61, %65
  %.masked30.masked.masked.masked.masked = or disjoint i64 %.masked.masked.masked.masked.masked.masked, %70
  %86 = getelementptr inbounds nuw i8, ptr %0, i64 62
  %87 = load i8, ptr %86, align 2, !tbaa !180, !range !14, !noundef !15
  %.masked.masked.masked.masked36 = or disjoint i8 %76, %73
  %.masked33.masked.masked37 = or disjoint i8 %.masked.masked.masked.masked36, %79
  %.masked.masked38 = or disjoint i8 %.masked33.masked.masked37, %82
  %.masked3539 = or disjoint i8 %.masked.masked38, %85
  %88 = or disjoint i8 %.masked3539, %87
  %89 = zext nneg i8 %88 to i64
  %90 = or i64 %.masked30.masked.masked.masked.masked, %89
  ret i64 %90
}